target datalayout = "e-m:e-p270:32:32-p271:32:32-p272:64:64-i64:64-i128:128-f80:128-n8:16:32:64-S128"
target triple = "x86_64-pc-linux-gnu"

%struct._range = type { i64, i64, i32 }

@.str.16 = private unnamed_addr constant [24 x i8] c"%s: Invalid range: `%s'\00", align 1
@__func__._parse_single_range = private unnamed_addr constant [20 x i8] c"_parse_single_range\00", align 1
@.str.17 = private unnamed_addr constant [33 x i8] c"%s: Too many hosts in range `%s'\00", align 1

; Function Attrs: nounwind uwtable
define internal i32 @_parse_single_range(ptr noundef %0, ptr noundef %1, i32 noundef %2) #0 {
  %4 = alloca i32, align 4
  %5 = alloca ptr, align 8
  %6 = alloca ptr, align 8
  %7 = alloca i32, align 4
  %8 = alloca ptr, align 8
  %9 = alloca ptr, align 8
  %10 = alloca ptr, align 8
  %11 = alloca i32, align 4
  %12 = alloca i32, align 4
  store ptr %0, ptr %5, align 8
  store ptr %1, ptr %6, align 8
  store i32 %2, ptr %7, align 4
  call void @llvm.lifetime.start.p0(i64 8, ptr %8) #13
  call void @llvm.lifetime.start.p0(i64 8, ptr %9) #13
  call void @llvm.lifetime.start.p0(i64 8, ptr %10) #13
  %13 = load ptr, ptr %5, align 8
  %14 = call noalias ptr @strdup(ptr noundef %13) #13
  store ptr %14, ptr %10, align 8
  call void @llvm.lifetime.start.p0(i64 4, ptr %11) #13
  %15 = load i32, ptr %7, align 4
  %16 = icmp sgt i32 %15, 1
  %17 = select i1 %16, i32 36, i32 10
  store i32 %17, ptr %11, align 4
  %18 = load ptr, ptr %10, align 8
  %19 = icmp ne ptr %18, null
  br i1 %19, label %25, label %20

20:                                               ; preds = %3
  br label %21

21:                                               ; preds = %20
  %22 = call ptr @__errno_location() #14
  store i32 12, ptr %22, align 4
  store i32 0, ptr %4, align 4
  store i32 1, ptr %12, align 4
  br label %138

23:                                               ; No predecessors!
  br label %24

24:                                               ; preds = %23
  br label %25

25:                                               ; preds = %24, %3
  %26 = load ptr, ptr %5, align 8
  %27 = call ptr @strchr(ptr noundef %26, i32 noundef 120) #16
  store ptr %27, ptr %8, align 8
  %28 = icmp ne ptr %27, null
  br i1 %28, label %29, label %33

29:                                               ; preds = %25
  %30 = load ptr, ptr %10, align 8
  %31 = call i32 (ptr, ...) @error(ptr noundef @.str.16, ptr noundef @__func__._parse_single_range, ptr noundef %30)
  %32 = load ptr, ptr %10, align 8
  call void @free(ptr noundef %32) #13
  store i32 0, ptr %4, align 4
  store i32 1, ptr %12, align 4
  br label %138

33:                                               ; preds = %25
  %34 = load ptr, ptr %5, align 8
  %35 = call ptr @strchr(ptr noundef %34, i32 noundef 45) #16
  store ptr %35, ptr %8, align 8
  %36 = icmp ne ptr %35, null
  br i1 %36, label %37, label %49

37:                                               ; preds = %33
  %38 = load ptr, ptr %8, align 8
  %39 = getelementptr inbounds nuw i8, ptr %38, i32 1
  store ptr %39, ptr %8, align 8
  store i8 0, ptr %38, align 1
  %40 = load ptr, ptr %8, align 8
  %41 = load i8, ptr %40, align 1
  %42 = sext i8 %41 to i32
  %43 = icmp eq i32 %42, 45
  br i1 %43, label %44, label %48

44:                                               ; preds = %37
  %45 = load ptr, ptr %10, align 8
  %46 = call i32 (ptr, ...) @error(ptr noundef @.str.16, ptr noundef @__func__._parse_single_range, ptr noundef %45)
  %47 = load ptr, ptr %10, align 8
  call void @free(ptr noundef %47) #13
  store i32 0, ptr %4, align 4
  store i32 1, ptr %12, align 4
  br label %138

48:                                               ; preds = %37
  br label %49

49:                                               ; preds = %48, %33
  %50 = load ptr, ptr %5, align 8
  %51 = call i64 @strlen(ptr noundef %50) #16
  %52 = trunc i64 %51 to i32
  %53 = load ptr, ptr %6, align 8
  %54 = getelementptr inbounds nuw %struct._range, ptr %53, i32 0, i32 2
  store i32 %52, ptr %54, align 8
  %55 = load i32, ptr %7, align 4
  %56 = icmp sgt i32 %55, 1
  br i1 %56, label %57, label %65

57:                                               ; preds = %49
  %58 = load ptr, ptr %6, align 8
  %59 = getelementptr inbounds nuw %struct._range, ptr %58, i32 0, i32 2
  %60 = load i32, ptr %59, align 8
  %61 = load i32, ptr %7, align 4
  %62 = icmp ne i32 %60, %61
  br i1 %62, label %63, label %64

63:                                               ; preds = %57
  store i32 10, ptr %11, align 4
  br label %64

64:                                               ; preds = %63, %57
  br label %65

65:                                               ; preds = %64, %49
  %66 = load ptr, ptr %5, align 8
  %67 = load i32, ptr %11, align 4
  %68 = call i64 @strtoul(ptr noundef %66, ptr noundef %9, i32 noundef %67) #13
  %69 = load ptr, ptr %6, align 8
  %70 = getelementptr inbounds nuw %struct._range, ptr %69, i32 0, i32 0
  store i64 %68, ptr %70, align 8
  %71 = load ptr, ptr %9, align 8
  %72 = load ptr, ptr %5, align 8
  %73 = icmp eq ptr %71, %72
  br i1 %73, label %74, label %78

74:                                               ; preds = %65
  %75 = load ptr, ptr %10, align 8
  %76 = call i32 (ptr, ...) @error(ptr noundef @.str.16, ptr noundef @__func__._parse_single_range, ptr noundef %75)
  %77 = load ptr, ptr %10, align 8
  call void @free(ptr noundef %77) #13
  store i32 0, ptr %4, align 4
  store i32 1, ptr %12, align 4
  br label %138

78:                                               ; preds = %65
  %79 = load ptr, ptr %8, align 8
  %80 = icmp ne ptr %79, null
  br i1 %80, label %81, label %90

81:                                               ; preds = %78
  %82 = load ptr, ptr %8, align 8
  %83 = load i8, ptr %82, align 1
  %84 = sext i8 %83 to i32
  %85 = icmp ne i32 %84, 0
  br i1 %85, label %86, label %90

86:                                               ; preds = %81
  %87 = load ptr, ptr %8, align 8
  %88 = load i32, ptr %11, align 4
  %89 = call i64 @strtoul(ptr noundef %87, ptr noundef %9, i32 noundef %88) #13
  br label %94

90:                                               ; preds = %81, %78
  %91 = load ptr, ptr %6, align 8
  %92 = getelementptr inbounds nuw %struct._range, ptr %91, i32 0, i32 0
  %93 = load i64, ptr %92, align 8
  br label %94

94:                                               ; preds = %90, %86
  %95 = phi i64 [ %89, %86 ], [ %93, %90 ]
  %96 = load ptr, ptr %6, align 8
  %97 = getelementptr inbounds nuw %struct._range, ptr %96, i32 0, i32 1
  store i64 %95, ptr %97, align 8
  %98 = load ptr, ptr %9, align 8
  %99 = load ptr, ptr %8, align 8
  %100 = icmp eq ptr %98, %99
  br i1 %100, label %106, label %101

101:                                              ; preds = %94
  %102 = load ptr, ptr %9, align 8
  %103 = load i8, ptr %102, align 1
  %104 = sext i8 %103 to i32
  %105 = icmp ne i32 %104, 0
  br i1 %105, label %106, label %110

106:                                              ; preds = %101, %94
  %107 = load ptr, ptr %10, align 8
  %108 = call i32 (ptr, ...) @error(ptr noundef @.str.16, ptr noundef @__func__._parse_single_range, ptr noundef %107)
  %109 = load ptr, ptr %10, align 8
  call void @free(ptr noundef %109) #13
  store i32 0, ptr %4, align 4
  store i32 1, ptr %12, align 4
  br label %138

110:                                              ; preds = %101
  %111 = load ptr, ptr %6, align 8
  %112 = getelementptr inbounds nuw %struct._range, ptr %111, i32 0, i32 0
  %113 = load i64, ptr %112, align 8
  %114 = load ptr, ptr %6, align 8
  %115 = getelementptr inbounds nuw %struct._range, ptr %114, i32 0, i32 1
  %116 = load i64, ptr %115, align 8
  %117 = icmp ugt i64 %113, %116
  br i1 %117, label %118, label %122

118:                                              ; preds = %110
  %119 = load ptr, ptr %10, align 8
  %120 = call i32 (ptr, ...) @error(ptr noundef @.str.16, ptr noundef @__func__._parse_single_range, ptr noundef %119)
  %121 = load ptr, ptr %10, align 8
  call void @free(ptr noundef %121) #13
  store i32 0, ptr %4, align 4
  store i32 1, ptr %12, align 4
  br label %138

122:                                              ; preds = %110
  %123 = load ptr, ptr %6, align 8
  %124 = getelementptr inbounds nuw %struct._range, ptr %123, i32 0, i32 1
  %125 = load i64, ptr %124, align 8
  %126 = load ptr, ptr %6, align 8
  %127 = getelementptr inbounds nuw %struct._range, ptr %126, i32 0, i32 0
  %128 = load i64, ptr %127, align 8
  %129 = sub i64 %125, %128
  %130 = add i64 %129, 1
  %131 = icmp ugt i64 %130, 65536
  br i1 %131, label %132, label %136

132:                                              ; preds = %122
  %133 = load ptr, ptr %10, align 8
  %134 = call i32 (ptr, ...) @error(ptr noundef @.str.17, ptr noundef @__func__._parse_single_range, ptr noundef %133)
  %135 = load ptr, ptr %10, align 8
  call void @free(ptr noundef %135) #13
  store i32 0, ptr %4, align 4
  store i32 1, ptr %12, align 4
  br label %138

136:                                              ; preds = %122
  %137 = load ptr, ptr %10, align 8
  call void @free(ptr noundef %137) #13
  store i32 1, ptr %4, align 4
  store i32 1, ptr %12, align 4
  br label %138

138:                                              ; preds = %136, %132, %118, %106, %74, %44, %29, %21
  call void @llvm.lifetime.end.p0(i64 4, ptr %11) #13
  call void @llvm.lifetime.end.p0(i64 8, ptr %10) #13
  call void @llvm.lifetime.end.p0(i64 8, ptr %9) #13
  call void @llvm.lifetime.end.p0(i64 8, ptr %8) #13
  %139 = load i32, ptr %4, align 4
  ret i32 %139
}