; Function Attrs: nounwind uwtable
define internal fastcc range(i32 0, 2) i32 @_parse_single_range(ptr noundef nonnull %0, ptr noundef captures(none) %1, i32 noundef %2) unnamed_addr #0 {
  %4 = alloca ptr, align 8
  call void @llvm.lifetime.start.p0(i64 8, ptr nonnull %4) #22
  %5 = tail call noalias ptr @strdup(ptr noundef nonnull %0) #22
  %6 = icmp slt i32 %2, 2
  %.not = icmp eq ptr %5, null
  br i1 %.not, label %7, label %9

7:                                                ; preds = %3
  %8 = tail call ptr @__errno_location() #24
  store i32 12, ptr %8, align 4
  br label %57

9:                                                ; preds = %3
  %10 = tail call ptr @strchr(ptr noundef nonnull dereferenceable(1) %0, i32 noundef 120) #23
  %.not48 = icmp eq ptr %10, null
  br i1 %.not48, label %13, label %11

11:                                               ; preds = %9
  %12 = tail call i32 (ptr, ...) @error(ptr noundef nonnull @.str.16, ptr noundef nonnull @__func__._parse_single_range, ptr noundef nonnull %5) #22
  tail call void @free(ptr noundef nonnull %5) #22
  br label %57

13:                                               ; preds = %9
  %14 = tail call ptr @strchr(ptr noundef nonnull dereferenceable(1) %0, i32 noundef 45) #23
  %.not49 = icmp eq ptr %14, null
  br i1 %.not49, label %21, label %15

15:                                               ; preds = %13
  %16 = getelementptr inbounds nuw i8, ptr %14, i64 1
  store i8 0, ptr %14, align 1
  %17 = load i8, ptr %16, align 1
  %18 = icmp eq i8 %17, 45
  br i1 %18, label %19, label %21

19:                                               ; preds = %15
  %20 = tail call i32 (ptr, ...) @error(ptr noundef nonnull @.str.16, ptr noundef nonnull @__func__._parse_single_range, ptr noundef nonnull %5) #22
  tail call void @free(ptr noundef nonnull %5) #22
  br label %57

21:                                               ; preds = %15, %13
  %.041 = phi ptr [ %16, %15 ], [ null, %13 ]
  %22 = tail call i64 @strlen(ptr noundef nonnull dereferenceable(1) %0) #23
  %23 = trunc i64 %22 to i32
  %24 = getelementptr inbounds nuw i8, ptr %1, i64 16
  store i32 %23, ptr %24, align 8
  %.not50 = icmp eq i32 %2, %23
  %25 = select i1 %.not50, i32 36, i32 10
  %.0 = select i1 %6, i32 10, i32 %25
  %26 = call i64 @strtoul(ptr noundef nonnull %0, ptr noundef nonnull %4, i32 noundef %.0) #22
  store i64 %26, ptr %1, align 8
  %27 = load ptr, ptr %4, align 8
  %28 = icmp eq ptr %27, %0
  br i1 %28, label %29, label %31

29:                                               ; preds = %21
  %30 = tail call i32 (ptr, ...) @error(ptr noundef nonnull @.str.16, ptr noundef nonnull @__func__._parse_single_range, ptr noundef nonnull %5) #22
  tail call void @free(ptr noundef nonnull %5) #22
  br label %57

31:                                               ; preds = %21
  %.not51 = icmp eq ptr %.041, null
  br i1 %.not51, label %36, label %32

32:                                               ; preds = %31
  %33 = load i8, ptr %.041, align 1
  %.not52 = icmp eq i8 %33, 0
  br i1 %.not52, label %36, label %34

34:                                               ; preds = %32
  %35 = call i64 @strtoul(ptr noundef nonnull %.041, ptr noundef nonnull %4, i32 noundef %.0) #22
  %.pre = load ptr, ptr %4, align 8
  br label %36

36:                                               ; preds = %31, %32, %34
  %37 = phi ptr [ %.pre, %34 ], [ %27, %32 ], [ %27, %31 ]
  %38 = phi i64 [ %35, %34 ], [ %26, %32 ], [ %26, %31 ]
  %39 = getelementptr inbounds nuw i8, ptr %1, i64 8
  store i64 %38, ptr %39, align 8
  %40 = icmp eq ptr %37, %.041
  br i1 %40, label %43, label %41

41:                                               ; preds = %36
  %42 = load i8, ptr %37, align 1
  %.not53 = icmp eq i8 %42, 0
  br i1 %.not53, label %45, label %43

43:                                               ; preds = %41, %36
  %44 = tail call i32 (ptr, ...) @error(ptr noundef nonnull @.str.16, ptr noundef nonnull @__func__._parse_single_range, ptr noundef nonnull %5) #22
  tail call void @free(ptr noundef nonnull %5) #22
  br label %57

45:                                               ; preds = %41
  %46 = load i64, ptr %1, align 8
  %47 = icmp ugt i64 %46, %38
  br i1 %47, label %48, label %50

48:                                               ; preds = %45
  %49 = tail call i32 (ptr, ...) @error(ptr noundef nonnull @.str.16, ptr noundef nonnull @__func__._parse_single_range, ptr noundef nonnull %5) #22
  tail call void @free(ptr noundef nonnull %5) #22
  br label %57

50:                                               ; preds = %45
  %51 = add i64 %38, -65536
  %52 = sub i64 %51, %46
  %53 = icmp ult i64 %52, -65537
  br i1 %53, label %54, label %56

54:                                               ; preds = %50
  %55 = tail call i32 (ptr, ...) @error(ptr noundef nonnull @.str.17, ptr noundef nonnull @__func__._parse_single_range, ptr noundef nonnull %5) #22
  tail call void @free(ptr noundef nonnull %5) #22
  br label %57

56:                                               ; preds = %50
  tail call void @free(ptr noundef nonnull %5) #22
  br label %57

57:                                               ; preds = %56, %54, %48, %43, %29, %19, %11, %7
  %.040 = phi i32 [ 0, %11 ], [ 0, %19 ], [ 0, %29 ], [ 0, %43 ], [ 0, %48 ], [ 0, %54 ], [ 1, %56 ], [ 0, %7 ]
  call void @llvm.lifetime.end.p0(i64 8, ptr nonnull %4) #22
  ret i32 %.040
}